; Function Attrs: mustprogress nounwind uwtable
define void @_ZN3g2o23HyperGraphActionLibrary7destroyEv() local_unnamed_addr #4 align 2 personality ptr @__gxx_personality_v0 {
  %1 = load ptr, ptr @_ZN3g2o23HyperGraphActionLibrary17actionLibInstanceE, align 8, !tbaa !3
  store ptr null, ptr @_ZN3g2o23HyperGraphActionLibrary17actionLibInstanceE, align 8, !tbaa !3
  %.not.i = icmp eq ptr %1, null
  br i1 %.not.i, label %_ZNSt10unique_ptrIN3g2o23HyperGraphActionLibraryESt14default_deleteIS1_EED2Ev.exit, label %2

2:                                                ; preds = %0
  %3 = getelementptr inbounds nuw i8, ptr %1, i64 16
  %4 = load ptr, ptr %3, align 8, !tbaa !8
  invoke void @_ZNSt8_Rb_treeINSt7__cxx1112basic_stringIcSt11char_traitsIcESaIcEEESt4pairIKS5_St10shared_ptrIN3g2o23HyperGraphElementActionEEESt10_Select1stISC_ESt4lessIS5_ESaISC_EE8_M_eraseEPSt13_Rb_tree_nodeISC_E(ptr noundef nonnull align 8 dereferenceable(48) %1, ptr noundef %4)
          to label %_ZNKSt14default_deleteIN3g2o23HyperGraphActionLibraryEEclEPS1_.exit.i unwind label %5

5:                                                ; preds = %2
  %6 = landingpad { ptr, i32 }
          catch ptr null
  %7 = extractvalue { ptr, i32 } %6, 0
  tail call void @__clang_call_terminate(ptr %7) #25
  unreachable

_ZNKSt14default_deleteIN3g2o23HyperGraphActionLibraryEEclEPS1_.exit.i: ; preds = %2
  tail call void @_ZdlPvm(ptr noundef nonnull %1, i64 noundef 48) #26
  br label %_ZNSt10unique_ptrIN3g2o23HyperGraphActionLibraryESt14default_deleteIS1_EED2Ev.exit

_ZNSt10unique_ptrIN3g2o23HyperGraphActionLibraryESt14default_deleteIS1_EED2Ev.exit: ; preds = %0, %_ZNKSt14default_deleteIN3g2o23HyperGraphActionLibraryEEclEPS1_.exit.i
  ret void
}